(dp0
I4
(dp1
I0
I5
ssI5
(dp2
I0
I2
sI1
I2
ssI6
(dp3
I0
I2
ssI7
(dp4
sI8
(dp5
I0
I2
sI1
I3
sI2
I2
sI3
I3
sI4
I3
sI5
I3
sI6
I3
sI7
I2
sI8
I4
sI9
I3
sI10
I4
sI11
I4
sI12
I3
sI13
I4
sI14
I2
sI15
I4
sI16
I4
sI17
I4
sI18
I1
sI19
I2
sI20
I2
sI21
I2
sI22
I3
sI23
I6
sI24
I3
ssI9
(dp6
I0
I3
sI1
I3
sI2
I6
sI3
I6
sI4
I4
sI5
I3
ssI10
(dp7
I0
I4
sI1
I3
sI2
I2
sI3
I4
sI4
I5
sI5
I4
sI6
I4
sI7
I6
sI8
I5
sI9
I4
sI10
I4
sI11
I3
sI12
I2
sI13
I4
sI14
I3
sI15
I4
sI16
I4
sI17
I4
sI18
I4
sI19
I4
sI20
I3
sI21
I3
sI22
I3
sI23
I3
sI24
I3
sI25
I3
sI26
I3
sI27
I6
sI28
I3
sI29
I3
sI30
I2
sI31
I2
sI32
I6
sI33
I2
sI34
I2
sI35
I2
sI36
I2
sI37
I6
sI38
I2
sI39
I2
sI40
I4
sI41
I4
sI42
I3
sI43
I2
sI44
I6
sI45
I4
sI46
I4
sI47
I6
sI48
I4
sI49
I4
sI50
I4
sI51
I4
sI52
I3
sI53
I2
sI54
I4
sI55
I3
sI56
I4
sI57
I6
sI58
I4
sI59
I4
sI60
I4
sI61
I4
sI62
I3
sI63
I2
sI64
I4
sI65
I4
sI66
I4
sI67
I6
sI68
I5
sI69
I4
sI70
I6
sI71
I6
sI72
I6
sI73
I6
sI74
I6
sI75
I6
sI76
I6
sI77
I6
sI78
I6
sI79
I6
sI80
I4
sI81
I5
sI82
I3
sI83
I2
sI84
I5
sI85
I4
sI86
I4
sI87
I5
sI88
I6
sI89
I5
sI90
I4
sI91
I4
sI92
I3
sI93
I2
sI94
I3
sI95
I3
sI96
I4
sI97
I4
sI98
I6
sI99
I4
ssI11
(dp8
I0
I5
sI1
I1
sI2
I5
sI3
I1
sI4
I1
sI5
I1
ssI12
(dp9
I0
I2
ssI13
(dp10
sI14
(dp11
I0
I3
ssI18
(dp12
I0
I2
sI1
I2
sI2
I3
sI3
I4
sI4
I2
sI5
I4
ssI20
(dp13
I0
I6
ssI21
(dp14
I0
I2
sI1
I2
ssI22
(dp15
sI23
(dp16
I0
I2
sI1
I2
sI2
I3
sI3
I2
sI4
I1
sI5
I2
sI6
I2
sI7
I1
sI8
I2
sI9
I3
sI10
I2
sI11
I2
ssI24
(dp17
sI26
(dp18
I0
I6
sI1
I6
sI2
I6
sI3
I6
sI4
I4
sI5
I6
sI6
I6
sI7
I6
sI8
I6
sI9
I6
sI10
I2
sI11
I6
sI12
I6
sI13
I6
sI14
I6
sI15
I4
sI16
I6
sI17
I6
sI18
I6
sI19
I6
sI20
I6
sI21
I6
sI22
I2
sI23
I6
sI24
I6
sI25
I6
sI26
I4
sI27
I6
sI28
I1
sI29
I6
sI30
I2
sI31
I2
sI32
I2
sI33
I2
sI34
I1
sI35
I2
sI36
I6
sI37
I6
sI38
I6
sI39
I6
sI40
I6
sI41
I2
ssI28
(dp19
I0
I2
ssI30
(dp20
I0
I3
sI1
I6
sI2
I4
sI3
I4
sI4
I6
sI5
I6
sI6
I4
sI7
I6
sI8
I6
ssI32
(dp21
sI33
(dp22
sI34
(dp23
sI35
(dp24
I0
I5
ssI36
(dp25
I0
I3
sI1
I3
sI2
I3
sI3
I3
ssI38
(dp26
I0
I3
ssI39
(dp27
I0
I2
sI1
I2
sI2
I1
sI3
I6
sI4
I2
sI5
I4
ssI40
(dp28
I0
I6
ssI41
(dp29
I0
I3
ssI42
(dp30
I0
I6
sI1
I6
sI2
I6
sI3
I4
ssI43
(dp31
sI44
(dp32
I0
I4
sI1
I5
ssI45
(dp33
I0
I4
ssI46
(dp34
I0
I4
sI1
I4
sI2
I6
sI3
I6
sI4
I6
sI5
I6
sI6
I6
sI7
I4
sI8
I4
sI9
I4
sI10
I6
sI11
I1
sI12
I6
sI13
I6
sI14
I6
sI15
I4
sI16
I4
sI17
I5
sI18
I6
sI19
I6
sI20
I6
sI21
I6
sI22
I6
sI23
I4
sI24
I6
sI25
I6
sI26
I6
sI27
I4
sI28
I4
sI29
I4
sI30
I4
sI31
I6
sI32
I6
sI33
I3
sI34
I6
sI35
I4
sI36
I6
sI37
I6
sI38
I3
sI39
I6
sI40
I6
sI41
I6
sI42
I6
sI43
I4
sI44
I4
sI45
I4
sI46
I4
sI47
I6
sI48
I6
sI49
I6
sI50
I6
sI51
I4
sI52
I4
sI53
I4
sI54
I4
sI55
I6
sI56
I6
sI57
I6
sI58
I6
sI59
I6
sI60
I5
sI61
I4
sI62
I4
sI63
I6
sI64
I4
sI65
I4
sI66
I4
sI67
I6
sI68
I6
sI69
I6
sI70
I6
sI71
I6
ssI47
(dp35
sI48
(dp36
I0
I5
sI1
I4
sI2
I3
sI3
I5
sI4
I6
sI5
I6
sI6
I5
sI7
I4
sI8
I6
sI9
I3
sI10
I6
sI11
I6
ssI49
(dp37
I0
I4
sI1
I4
ssI51
(dp38
I0
I3
sI1
I3
ssI52
(dp39
I0
I1
sI1
I6
sI2
I6
sI3
I1
sI4
I6
sI5
I6
sI6
I6
sI7
I6
sI8
I4
sI9
I6
sI10
I6
sI11
I4
ssI53
(dp40
I0
I1
sI1
I1
sI2
I6
sI3
I6
sI4
I1
sI5
I1
sI6
I6
sI7
I3
sI8
I6
sI9
I1
sI10
I6
sI11
I1
sI12
I6
sI13
I6
sI14
I6
sI15
I6
sI16
I6
sI17
I4
sI18
I1
sI19
I6
ssI54
(dp41
I0
I1
ssI55
(dp42
I0
I6
sI1
I6
ssI56
(dp43
I0
I6
sI1
I3
sI2
I6
sI3
I6
sI4
I6
sI5
I6
sI6
I6
sI7
I6
sI8
I3
sI9
I6
sI10
I4
sI11
I6
sI12
I6
sI13
I6
sI14
I4
sI15
I6
sI16
I4
sI17
I4
sI18
I6
sI19
I6
sI20
I4
sI21
I6
sI22
I6
sI23
I4
sI24
I6
ssI57
(dp44
I0
I4
sI1
I6
sI2
I3
sI3
I4
sI4
I4
sI5
I2
sI6
I6
sI7
I6
sI8
I3
sI9
I2
sI10
I2
sI11
I3
ssI58
(dp45
I0
I6
ssI60
(dp46
I0
I6
ssI62
(dp47
I0
I2
sI1
I6
sI2
I6
sI3
I6
sI4
I6
sI5
I6
sI6
I6
sI7
I6
sI8
I2
sI9
I3
sI10
I6
sI11
I6
sI12
I6
sI13
I6
sI14
I6
sI15
I6
sI16
I6
sI17
I1
sI18
I6
sI19
I2
sI20
I6
sI21
I4
sI22
I6
sI23
I6
sI24
I6
sI25
I3
sI26
I3
sI27
I4
sI28
I6
sI29
I6
sI30
I6
sI31
I6
sI32
I6
sI33
I6
sI34
I6
sI35
I6
sI36
I6
sI37
I6
sI38
I2
sI39
I6
sI40
I6
sI41
I6
ssI63
(dp48
I0
I3
sI1
I6
ssI64
(dp49
I0
I3
sI1
I4
ssI65
(dp50
I0
I3
sI1
I3
ssI66
(dp51
I0
I3
sI1
I3
sI2
I6
sI3
I3
sI4
I3
sI5
I4
sI6
I3
sI7
I2
sI8
I6
sI9
I6
sI10
I4
sI11
I6
ssI67
(dp52
I0
I6
sI1
I4
sI2
I4
sI3
I4
sI4
I4
sI5
I4
sI6
I4
sI7
I4
sI8
I4
sI9
I4
sI10
I4
sI11
I4
sI12
I4
sI13
I4
sI14
I4
sI15
I4
sI16
I4
sI17
I4
sI18
I4
sI19
I4
ssI68
(dp53
I0
I3
sI1
I3
ssI69
(dp54
I0
I3
ssI70
(dp55
I0
I3
ssI71
(dp56
I0
I3
ssI72
(dp57
sI73
(dp58
sI74
(dp59
I0
I3
sI1
I6
sI2
I3
sI3
I4
sI4
I6
sI5
I6
sI6
I3
sI7
I6
sI8
I6
ssI75
(dp60
I0
I3
ssI77
(dp61
I0
I6
ssI78
(dp62
I0
I2
sI1
I6
sI2
I6
sI3
I6
sI4
I6
sI5
I6
sI6
I2
sI7
I2
sI8
I2
sI9
I2
sI10
I2
sI11
I2
sI12
I6
sI13
I6
sI14
I6
sI15
I6
sI16
I6
sI17
I6
sI18
I3
sI19
I3
sI20
I3
sI21
I3
sI22
I3
sI23
I3
sI24
I3
sI25
I3
sI26
I3
sI27
I3
sI28
I3
sI29
I4
sI30
I3
sI31
I3
sI32
I3
sI33
I3
sI34
I3
sI35
I3
ssI79
(dp63
I0
I3
sI1
I3
sI2
I3
sI3
I3
sI4
I4
sI5
I3
sI6
I3
sI7
I3
sI8
I3
sI9
I3
sI10
I3
sI11
I3
sI12
I3
sI13
I3
sI14
I3
sI15
I3
sI16
I3
sI17
I3
sI18
I2
sI19
I4
sI20
I3
sI21
I3
sI22
I3
sI23
I2
sI24
I3
sI25
I3
sI26
I3
sI27
I3
sI28
I3
sI29
I3
ssI82
(dp64
sI84
(dp65
sI85
(dp66
sI86
(dp67
sI87
(dp68
I0
I2
sI1
I3
ssI88
(dp69
sI89
(dp70
I0
I6
sI1
I2
sI2
I2
sI3
I2
sI4
I3
sI5
I3
ssI90
(dp71
sI91
(dp72
sI92
(dp73
sI93
(dp74
sI94
(dp75
sI95
(dp76
I0
I4
sI1
I4
ssI96
(dp77
I0
I6
sI1
I6
ssI97
(dp78
sI98
(dp79
I0
I6
sI1
I6
sI2
I6
sI3
I3
sI4
I3
sI5
I3
sI6
I3
sI7
I6
sI8
I6
sI9
I6
sI10
I2
sI11
I2
sI12
I2
sI13
I2
sI14
I6
sI15
I6
sI16
I6
sI17
I6
sI18
I6
sI19
I6
sI20
I6
sI21
I6
sI22
I6
sI23
I2
sI24
I6
sI25
I4
sI26
I4
sI27
I4
sI28
I2
sI29
I2
sI30
I2
sI31
I2
sI32
I4
sI33
I4
sI34
I4
sI35
I3
sI36
I3
sI37
I3
sI38
I3
sI39
I3
sI40
I4
sI41
I4
ssI100
(dp80
I0
I1
ssI101
(dp81
I0
I2
sI1
I3
sI2
I3
sI3
I2
sI4
I3
sI5
I2
ssI104
(dp82
sI108
(dp83
sI109
(dp84
I0
I3
sI1
I3
ssI110
(dp85
I0
I6
sI1
I6
sI2
I6
ssI111
(dp86
sI113
(dp87
I0
I6
sI1
I6
sI2
I6
sI3
I6
sI4
I3
sI5
I6
sI6
I4
sI7
I6
sI8
I6
sI9
I4
sI10
I6
sI11
I4
sI12
I4
sI13
I6
sI14
I5
sI15
I6
sI16
I4
sI17
I4
sI18
I6
sI19
I4
sI20
I3
sI21
I6
sI22
I6
sI23
I6
sI24
I6
sI25
I3
sI26
I4
sI27
I5
sI28
I4
sI29
I3
ssI114
(dp88
I0
I5
sI1
I5
ssI117
(dp89
I0
I3
ssI118
(dp90
I0
I3
ssI119
(dp91
I0
I3
sI1
I3
sI2
I3
sI3
I3
sI4
I3
sI5
I3
sI6
I3
sI7
I3
sI8
I3
sI9
I3
sI10
I3
sI11
I3
ssI121
(dp92
I0
I6
ssI122
(dp93
I0
I6
sI1
I6
sI2
I2
sI3
I3
sI4
I6
sI5
I2
ssI123
(dp94
I0
I1
sI1
I1
ssI124
(dp95
I0
I3
ssI125
(dp96
I0
I2
sI1
I6
sI2
I1
sI3
I1
sI4
I6
sI5
I6
ssI126
(dp97
I0
I4
sI1
I6
sI2
I4
sI3
I6
sI4
I6
sI5
I4
ssI128
(dp98
I0
I5
sI1
I5
ssI129
(dp99
I0
I3
sI1
I3
ssI133
(dp100
sI134
(dp101
I0
I3
ssI135
(dp102
I0
I5
sI1
I4
ssI136
(dp103
sI137
(dp104
I0
I3
sI1
I6
sI2
I6
sI3
I3
sI4
I6
sI5
I4
sI6
I4
sI7
I6
sI8
I4
sI9
I4
sI10
I4
sI11
I4
sI12
I6
sI13
I4
sI14
I4
sI15
I4
sI16
I6
sI17
I6
sI18
I4
sI19
I4
ssI138
(dp105
I0
I3
ssI139
(dp106
I0
I4
sI1
I6
sI2
I6
sI3
I4
sI4
I6
sI5
I4
sI6
I3
sI7
I3
sI8
I3
sI9
I3
sI10
I3
sI11
I3
ssI140
(dp107
I0
I3
sI1
I3
ssI141
(dp108
I0
I3
ssI142
(dp109
I0
I3
ssI143
(dp110
I0
I6
sI1
I5
ssI144
(dp111
sI145
(dp112
I0
I4
ssI146
(dp113
I0
I2
sI1
I4
ssI147
(dp114
I0
I3
ssI148
(dp115
I0
I3
sI1
I1
ssI149
(dp116
I0
I3
sI1
I3
ssI150
(dp117
I0
I6
sI1
I6
sI2
I6
sI3
I6
ssI151
(dp118
I0
I6
sI1
I6
ssI152
(dp119
I0
I1
sI1
I1
ssI153
(dp120
I0
I6
sI1
I6
sI2
I6
sI3
I6
sI4
I6
sI5
I6
sI6
I4
sI7
I3
sI8
I6
sI9
I6
sI10
I3
sI11
I3
sI12
I3
sI13
I3
sI14
I3
sI15
I4
sI16
I6
sI17
I3
sI18
I3
sI19
I4
ssI156
(dp121
I0
I4
ssI157
(dp122
I0
I6
ssI158
(dp123
I0
I6
sI1
I6
sI2
I3
sI3
I6
sI4
I6
sI5
I3
sI6
I4
sI7
I6
sI8
I6
ssI160
(dp124
I0
I1
sI1
I1
ssI161
(dp125
I0
I4
sI1
I4
ssI162
(dp126
I0
I4
sI1
I3
sI2
I2
sI3
I3
sI4
I3
sI5
I3
sI6
I3
sI7
I2
sI8
I3
sI9
I3
sI10
I3
sI11
I3
sI12
I2
sI13
I3
sI14
I3
sI15
I3
sI16
I3
sI17
I3
sI18
I3
sI19
I3
sI20
I3
sI21
I3
sI22
I3
sI23
I2
sI24
I3
sI25
I3
sI26
I3
sI27
I3
sI28
I2
sI29
I3
ssI163
(dp127
I0
I6
sI1
I4
sI2
I4
sI3
I4
sI4
I6
sI5
I6
sI6
I6
sI7
I1
sI8
I1
sI9
I1
sI10
I1
sI11
I2
sI12
I2
sI13
I2
sI14
I3
sI15
I2
sI16
I4
sI17
I4
sI18
I4
sI19
I6
sI20
I4
sI21
I6
sI22
I6
sI23
I6
sI24
I6
sI25
I2
sI26
I6
sI27
I4
sI28
I3
sI29
I3
sI30
I3
sI31
I4
sI32
I3
sI33
I3
sI34
I4
sI35
I6
sI36
I6
sI37
I6
sI38
I1
sI39
I6
sI40
I6
sI41
I6
sI42
I6
sI43
I6
sI44
I6
sI45
I6
sI46
I6
sI47
I6
sI48
I6
sI49
I3
sI50
I3
sI51
I4
sI52
I4
sI53
I4
sI54
I6
sI55
I3
ssI167
(dp128
I0
I6
ssI168
(dp129
I0
I6
ssI169
(dp130
sI170
(dp131
I0
I1
sI1
I3
sI2
I3
sI3
I1
ssI172
(dp132
I0
I1
sI1
I3
ssI173
(dp133
sI174
(dp134
I0
I3
sI1
I1
sI2
I1
sI3
I3
sI4
I1
sI5
I3
sI6
I2
sI7
I2
sI8
I2
sI9
I3
sI10
I6
sI11
I6
ssI175
(dp135
sI176
(dp136
I0
I6
ssI177
(dp137
I0
I6
sI1
I1
sI2
I3
sI3
I6
sI4
I6
sI5
I6
sI6
I1
sI7
I6
sI8
I1
sI9
I1
sI10
I6
sI11
I1
ssI178
(dp138
I0
I6
ssI179
(dp139
sI180
(dp140
sI181
(dp141
sI182
(dp142
I0
I5
ssI184
(dp143
I0
I5
ssI185
(dp144
I0
I5
ssI186
(dp145
I0
I4
ssI187
(dp146
I0
I4
ssI188
(dp147
I0
I3
ssI189
(dp148
I0
I3
ssI190
(dp149
I0
I3
sI1
I6
sI2
I3
sI3
I6
sI4
I6
sI5
I5
ssI191
(dp150
I0
I4
sI1
I4
ssI193
(dp151
I0
I6
sI1
I3
ssI198
(dp152
I0
I5
ssI199
(dp153
I0
I3
ssI200
(dp154
sI201
(dp155
I0
I6
sI1
I3
sI2
I6
sI3
I6
sI4
I4
sI5
I6
sI6
I6
sI7
I3
sI8
I6
ssI202
(dp156
I0
I6
sI1
I6
sI2
I6
sI3
I5
sI4
I4
sI5
I6
sI6
I6
sI7
I4
sI8
I6
sI9
I6
sI10
I4
sI11
I6
ssI203
(dp157
I0
I6
ssI207
(dp158
I0
I1
sI1
I1
sI2
I3
sI3
I6
sI4
I1
sI5
I6
ssI208
(dp159
I0
I2
ssI210
(dp160
I0
I6
sI1
I6
sI2
I6
sI3
I6
ssI211
(dp161
I0
I1
ssI212
(dp162
sI213
(dp163
sI214
(dp164
I0
I5
ssI215
(dp165
I0
I5
sI1
I6
ssI216
(dp166
sI217
(dp167
sI218
(dp168
I0
I3
sI1
I3
sI2
I3
sI3
I3
sI4
I3
sI5
I3
sI6
I3
sI7
I3
sI8
I3
sI9
I3
sI10
I3
sI11
I3
ssI223
(dp169
I0
I2
sI1
I3
ssI224
(dp170
sI225
(dp171
sI226
(dp172
I0
I4
sI1
I4
ssI229
(dp173
sI230
(dp174
sI234
(dp175
sI235
(dp176
sI237
(dp177
sI238
(dp178
sI239
(dp179
I0
I3
sI1
I3
ss.