(dp0
I1
(dp1
I0
I6
sI1
I6
sI2
I4
sI3
I4
sI4
I6
sI5
I2
sI6
I6
sI7
I6
sI8
I6
sI9
I2
sI10
I6
sI11
I6
ssI2
(dp2
I0
I6
sI1
I6
sI2
I4
sI3
I4
sI4
I6
sI5
I4
sI6
I6
sI7
I6
sI8
I6
sI9
I4
sI10
I6
sI11
I6
ssI3
(dp3
I0
I6
sI1
I6
sI2
I6
sI3
I4
sI4
I6
sI5
I6
sI6
I6
sI7
I6
sI8
I6
sI9
I4
sI10
I6
sI11
I6
ssI4
(dp4
I0
I6
sI1
I4
sI2
I6
sI3
I4
sI4
I4
sI5
I4
ssI5
(dp5
sI6
(dp6
I0
I4
sI1
I4
ssI11
(dp7
I0
I4
sI1
I4
ssI12
(dp8
I0
I6
sI1
I6
sI2
I4
sI3
I6
sI4
I6
sI5
I6
sI6
I6
sI7
I6
sI8
I6
sI9
I4
sI10
I6
sI11
I6
ssI14
(dp9
I0
I4
sI1
I4
sI2
I6
sI3
I4
sI4
I4
sI5
I6
sI6
I4
sI7
I4
sI8
I6
ssI15
(dp10
I0
I6
sI1
I4
sI2
I6
sI3
I4
sI4
I4
sI5
I5
ssI16
(dp11
I0
I6
sI1
I6
sI2
I6
sI3
I6
sI4
I4
sI5
I6
sI6
I6
sI7
I6
sI8
I4
sI9
I4
sI10
I6
sI11
I6
sI12
I6
sI13
I4
sI14
I6
sI15
I6
sI16
I4
sI17
I6
sI18
I6
sI19
I6
ssI17
(dp12
sI18
(dp13
I0
I3
sI1
I3
ssI19
(dp14
I0
I3
sI1
I3
ssI20
(dp15
I0
I6
sI1
I4
sI2
I6
sI3
I6
sI4
I6
sI5
I6
sI6
I4
sI7
I4
sI8
I6
sI9
I6
sI10
I6
sI11
I4
ssI22
(dp16
I0
I6
sI1
I4
sI2
I6
sI3
I6
sI4
I4
sI5
I4
ssI23
(dp17
I0
I5
sI1
I5
ssI24
(dp18
I0
I4
sI1
I4
sI2
I4
sI3
I6
ssI27
(dp19
sI28
(dp20
sI34
(dp21
I0
I4
ssI36
(dp22
I0
I4
ssI37
(dp23
I0
I1
sI1
I1
ssI39
(dp24
I0
I6
sI1
I6
sI2
I6
sI3
I6
sI4
I3
sI5
I3
sI6
I6
sI7
I3
sI8
I4
sI9
I6
sI10
I3
sI11
I4
ssI41
(dp25
sI42
(dp26
I0
I5
sI1
I5
ssI43
(dp27
I0
I4
sI1
I4
ssI44
(dp28
I0
I4
sI1
I4
sI2
I4
sI3
I4
sI4
I4
sI5
I4
sI6
I4
sI7
I4
sI8
I4
sI9
I4
sI10
I4
sI11
I4
ssI46
(dp29
I0
I3
sI1
I3
ssI48
(dp30
I0
I2
sI1
I2
ssI49
(dp31
I0
I4
sI1
I4
ssI50
(dp32
sI53
(dp33
I0
I4
sI1
I4
sI2
I4
sI3
I4
sI4
I4
sI5
I4
ssI54
(dp34
I0
I4
sI1
I6
sI2
I6
sI3
I6
sI4
I4
sI5
I3
sI6
I4
sI7
I4
sI8
I6
sI9
I4
sI10
I6
sI11
I6
sI12
I6
sI13
I4
sI14
I6
sI15
I6
sI16
I6
sI17
I4
sI18
I6
sI19
I6
ssI56
(dp35
I0
I5
sI1
I5
ssI57
(dp36
I0
I4
sI1
I4
ssI58
(dp37
I0
I4
sI1
I4
ssI59
(dp38
I0
I4
ssI60
(dp39
I0
I3
sI1
I3
sI2
I3
sI3
I3
ssI62
(dp40
I0
I4
sI1
I4
ssI63
(dp41
I0
I5
sI1
I4
sI2
I6
sI3
I4
sI4
I6
sI5
I4
ssI66
(dp42
I0
I4
sI1
I4
sI2
I4
sI3
I4
sI4
I4
sI5
I6
sI6
I4
sI7
I4
sI8
I4
sI9
I6
sI10
I4
sI11
I4
sI12
I6
sI13
I4
sI14
I4
sI15
I6
sI16
I4
sI17
I4
sI18
I4
sI19
I4
sI20
I4
sI21
I4
sI22
I4
sI23
I4
sI24
I4
sI25
I6
sI26
I6
sI27
I4
sI28
I4
sI29
I4
sI30
I4
sI31
I4
sI32
I4
sI33
I4
sI34
I4
sI35
I6
ssI67
(dp43
I0
I6
sI1
I3
sI2
I4
sI3
I6
sI4
I6
sI5
I4
sI6
I6
sI7
I4
sI8
I4
ssI70
(dp44
I0
I3
sI1
I6
ssI71
(dp45
I0
I3
sI1
I3
ssI72
(dp46
I0
I6
ssI74
(dp47
I0
I4
sI1
I4
sI2
I4
sI3
I4
sI4
I4
sI5
I4
ssI75
(dp48
I0
I6
sI1
I4
ssI76
(dp49
I0
I4
ssI77
(dp50
I0
I5
sI1
I5
sI2
I3
sI3
I3
sI4
I3
sI5
I3
sI6
I5
sI7
I4
sI8
I4
sI9
I4
sI10
I4
sI11
I4
ssI80
(dp51
I0
I5
sI1
I5
ssI82
(dp52
sI85
(dp53
I0
I6
sI1
I3
sI2
I6
sI3
I6
sI4
I6
sI5
I6
sI6
I3
sI7
I6
sI8
I4
sI9
I6
sI10
I6
sI11
I4
ssI86
(dp54
I0
I4
sI1
I4
ssI87
(dp55
I0
I4
sI1
I4
ssI88
(dp56
I0
I6
sI1
I4
sI2
I6
sI3
I4
sI4
I4
sI5
I6
sI6
I3
sI7
I6
sI8
I3
sI9
I3
sI10
I6
sI11
I3
sI12
I3
sI13
I3
sI14
I2
sI15
I6
sI16
I3
sI17
I4
sI18
I4
sI19
I1
ssI89
(dp57
I0
I6
sI1
I6
sI2
I3
sI3
I4
sI4
I6
sI5
I6
sI6
I4
sI7
I4
sI8
I6
sI9
I6
sI10
I4
sI11
I4
ssI91
(dp58
I0
I2
sI1
I2
sI2
I4
sI3
I4
sI4
I4
sI5
I4
ssI92
(dp59
I0
I4
sI1
I4
ssI93
(dp60
I0
I4
sI1
I4
sI2
I4
sI3
I4
sI4
I3
sI5
I4
sI6
I6
sI7
I4
sI8
I6
sI9
I4
sI10
I4
sI11
I4
ssI94
(dp61
I0
I6
sI1
I4
sI2
I6
sI3
I6
sI4
I4
sI5
I4
sI6
I6
sI7
I4
sI8
I4
sI9
I4
sI10
I4
sI11
I4
sI12
I4
sI13
I4
sI14
I4
sI15
I4
sI16
I4
sI17
I4
sI18
I4
sI19
I4
ssI95
(dp62
I0
I4
ssI96
(dp63
I0
I1
sI1
I4
sI2
I3
sI3
I3
sI4
I4
sI5
I2
ssI97
(dp64
I0
I3
sI1
I3
ssI99
(dp65
I0
I3
ssI101
(dp66
I0
I3
sI1
I4
sI2
I3
sI3
I3
sI4
I4
sI5
I3
ssI103
(dp67
I0
I1
ssI113
(dp68
sI114
(dp69
I0
I3
sI1
I3
ssI115
(dp70
I0
I4
sI1
I6
sI2
I4
sI3
I6
sI4
I6
sI5
I6
ssI116
(dp71
sI117
(dp72
I0
I4
sI1
I4
ssI118
(dp73
I0
I4
sI1
I4
sI2
I4
sI3
I4
sI4
I4
sI5
I4
ssI124
(dp74
I0
I3
sI1
I3
ssI125
(dp75
I0
I4
sI1
I4
sI2
I4
sI3
I4
sI4
I4
sI5
I4
ssI128
(dp76
I0
I3
sI1
I2
sI2
I3
sI3
I1
sI4
I2
sI5
I3
ssI129
(dp77
I0
I3
sI1
I3
sI2
I3
sI3
I4
ssI130
(dp78
I0
I6
sI1
I4
sI2
I6
sI3
I3
ssI131
(dp79
I0
I6
ssI134
(dp80
I0
I3
sI1
I3
sI2
I1
sI3
I4
sI4
I3
sI5
I4
ssI138
(dp81
I0
I3
sI1
I4
ssI140
(dp82
sI143
(dp83
I0
I4
sI1
I4
sI2
I3
sI3
I3
sI4
I4
sI5
I4
ssI145
(dp84
I0
I6
sI1
I3
sI2
I3
sI3
I3
sI4
I3
sI5
I3
sI6
I3
sI7
I3
sI8
I3
sI9
I3
sI10
I3
sI11
I3
sI12
I3
sI13
I3
sI14
I3
sI15
I3
ssI146
(dp85
I0
I3
sI1
I4
ssI148
(dp86
I0
I4
sI1
I4
ssI153
(dp87
I0
I4
sI1
I4
ssI154
(dp88
sI155
(dp89
sI156
(dp90
I0
I3
ssI157
(dp91
I0
I4
sI1
I4
sI2
I4
sI3
I4
sI4
I4
sI5
I4
ssI158
(dp92
I0
I4
sI1
I4
sI2
I4
sI3
I4
sI4
I4
sI5
I4
sI6
I4
sI7
I4
sI8
I4
sI9
I4
sI10
I4
sI11
I4
ssI160
(dp93
I0
I4
sI1
I6
ssI167
(dp94
I0
I6
sI1
I4
sI2
I4
sI3
I4
sI4
I4
sI5
I4
ssI168
(dp95
I0
I4
sI1
I4
ssI169
(dp96
I0
I4
sI1
I4
ssI170
(dp97
I0
I4
sI1
I6
sI2
I4
sI3
I6
ssI171
(dp98
I0
I6
ssI172
(dp99
I0
I4
ssI173
(dp100
I0
I4
sI1
I4
ssI174
(dp101
sI175
(dp102
I0
I3
sI1
I3
ssI176
(dp103
I0
I6
sI1
I4
sI2
I6
sI3
I4
ssI178
(dp104
I0
I4
sI1
I4
sI2
I4
sI3
I4
ssI179
(dp105
I0
I6
sI1
I5
sI2
I2
sI3
I6
sI4
I6
sI5
I4
sI6
I2
sI7
I4
sI8
I6
sI9
I2
sI10
I1
sI11
I6
sI12
I6
sI13
I6
sI14
I4
sI15
I6
ssI181
(dp106
I0
I4
sI1
I4
ssI182
(dp107
I0
I6
sI1
I4
sI2
I6
sI3
I4
ssI183
(dp108
I0
I6
sI1
I4
sI2
I6
sI3
I6
sI4
I6
sI5
I6
sI6
I6
sI7
I2
sI8
I6
sI9
I4
sI10
I6
sI11
I2
sI12
I4
sI13
I4
sI14
I4
sI15
I4
sI16
I4
sI17
I4
sI18
I4
sI19
I3
sI20
I4
sI21
I3
sI22
I6
sI23
I4
sI24
I4
sI25
I3
sI26
I6
sI27
I6
sI28
I3
sI29
I6
sI30
I4
sI31
I4
sI32
I4
sI33
I4
sI34
I4
sI35
I4
ssI184
(dp109
I0
I4
sI1
I4
ssI185
(dp110
I0
I4
sI1
I4
ssI186
(dp111
I0
I4
ssI189
(dp112
I0
I4
sI1
I4
sI2
I4
sI3
I6
sI4
I6
sI5
I4
sI6
I4
sI7
I4
sI8
I4
ssI190
(dp113
I0
I4
sI1
I4
ssI198
(dp114
I0
I4
sI1
I4
ssI199
(dp115
I0
I3
sI1
I3
ssI202
(dp116
sI204
(dp117
I0
I4
sI1
I4
ssI207
(dp118
I0
I4
sI1
I4
ssI208
(dp119
I0
I4
ssI209
(dp120
I0
I4
sI1
I4
sI2
I4
sI3
I4
sI4
I4
sI5
I4
sI6
I4
sI7
I4
sI8
I4
ssI210
(dp121
I0
I4
sI1
I4
ssI211
(dp122
I0
I4
sI1
I4
sI2
I4
sI3
I4
sI4
I4
sI5
I4
ssI213
(dp123
I0
I4
sI1
I4
sI2
I4
sI3
I4
sI4
I4
sI5
I4
ssI214
(dp124
I0
I2
sI1
I1
ssI217
(dp125
I0
I4
sI1
I4
ssI218
(dp126
sI219
(dp127
I0
I3
sI1
I3
ssI221
(dp128
I0
I6
sI1
I4
sI2
I4
sI3
I6
sI4
I4
sI5
I3
sI6
I6
sI7
I4
sI8
I2
ssI222
(dp129
I0
I3
sI1
I3
ss.