(dp0
I1
(dp1
I0
I3
sI1
I3
sI2
I3
sI3
I3
sI4
I3
sI5
I3
ssI2
(dp2
I0
I3
sI1
I2
ssI3
(dp3
I0
I6
sI1
I4
sI2
I4
sI3
I4
sI4
I6
sI5
I4
sI6
I4
sI7
I6
sI8
I4
ssI6
(dp4
I0
I6
sI1
I4
sI2
I6
sI3
I4
sI4
I4
sI5
I4
ssI7
(dp5
I0
I5
sI1
I5
ssI13
(dp6
I0
I4
sI1
I4
sI2
I4
sI3
I4
sI4
I4
sI5
I4
sI6
I4
sI7
I4
sI8
I4
ssI14
(dp7
I0
I4
sI1
I4
sI2
I4
sI3
I4
ssI16
(dp8
I0
I6
ssI18
(dp9
I0
I2
ssI20
(dp10
I0
I6
ssI25
(dp11
sI26
(dp12
I0
I6
ssI32
(dp13
I0
I6
sI1
I4
sI2
I2
sI3
I6
sI4
I4
sI5
I2
sI6
I6
sI7
I2
sI8
I4
ssI34
(dp14
I0
I2
sI1
I2
ssI36
(dp15
I0
I6
sI1
I6
sI2
I2
sI3
I4
sI4
I6
sI5
I2
sI6
I3
sI7
I4
sI8
I2
ssI38
(dp16
I0
I6
sI1
I3
ssI39
(dp17
I0
I3
sI1
I3
ssI40
(dp18
I0
I4
ssI42
(dp19
I0
I3
sI1
I3
sI2
I3
sI3
I3
sI4
I3
sI5
I3
ssI43
(dp20
I0
I6
sI1
I2
sI2
I2
sI3
I2
sI4
I2
sI5
I5
sI6
I2
sI7
I6
sI8
I6
sI9
I6
sI10
I2
sI11
I2
ssI47
(dp21
I0
I4
sI1
I4
sI2
I6
sI3
I4
sI4
I4
sI5
I4
sI6
I4
sI7
I4
sI8
I4
sI9
I4
sI10
I4
sI11
I4
sI12
I4
sI13
I4
sI14
I6
sI15
I4
sI16
I4
sI17
I4
sI18
I6
sI19
I6
sI20
I6
sI21
I4
sI22
I6
sI23
I6
sI24
I4
sI25
I4
sI26
I4
sI27
I4
sI28
I4
sI29
I4
sI30
I4
sI31
I4
sI32
I4
sI33
I4
sI34
I4
sI35
I4
sI36
I4
sI37
I4
sI38
I4
sI39
I4
sI40
I4
sI41
I4
ssI48
(dp22
I0
I4
sI1
I4
ssI50
(dp23
I0
I6
sI1
I4
sI2
I3
sI3
I6
sI4
I4
sI5
I3
sI6
I6
sI7
I3
sI8
I3
ssI52
(dp24
I0
I4
sI1
I3
sI2
I4
sI3
I3
sI4
I3
sI5
I3
ssI53
(dp25
I0
I4
sI1
I4
ssI55
(dp26
I0
I4
sI1
I4
ssI56
(dp27
I0
I4
sI1
I4
sI2
I4
sI3
I4
sI4
I4
sI5
I4
ssI60
(dp28
I0
I4
sI1
I4
ssI61
(dp29
I0
I4
sI1
I4
sI2
I4
sI3
I4
sI4
I4
sI5
I4
ssI62
(dp30
I0
I6
sI1
I4
sI2
I4
sI3
I4
ssI63
(dp31
I0
I4
sI1
I4
sI2
I4
sI3
I4
sI4
I4
sI5
I4
ssI65
(dp32
I0
I4
sI1
I4
ssI67
(dp33
I0
I4
sI1
I4
ssI68
(dp34
I0
I4
ssI69
(dp35
I0
I4
sI1
I4
sI2
I4
sI3
I4
sI4
I4
sI5
I4
ssI70
(dp36
I0
I4
sI1
I4
ssI71
(dp37
I0
I4
sI1
I4
ssI72
(dp38
I0
I4
sI1
I4
ssI73
(dp39
I0
I6
sI1
I6
sI2
I6
sI3
I3
sI4
I3
sI5
I4
ssI74
(dp40
I0
I2
sI1
I2
sI2
I3
sI3
I3
ssI75
(dp41
I0
I4
sI1
I4
ssI76
(dp42
I0
I4
sI1
I4
ssI77
(dp43
I0
I4
sI1
I4
sI2
I4
sI3
I4
sI4
I4
sI5
I4
ssI80
(dp44
I0
I4
sI1
I4
sI2
I4
sI3
I4
sI4
I4
sI5
I4
sI6
I4
sI7
I4
sI8
I4
ssI81
(dp45
I0
I6
sI1
I4
sI2
I4
sI3
I4
sI4
I4
sI5
I4
sI6
I4
sI7
I4
sI8
I4
sI9
I4
sI10
I4
sI11
I4
sI12
I4
sI13
I4
sI14
I4
sI15
I4
sI16
I4
sI17
I4
sI18
I4
sI19
I4
ssI84
(dp46
I0
I4
ssI85
(dp47
I0
I4
sI1
I4
ssI87
(dp48
I0
I4
sI1
I4
sI2
I4
sI3
I4
ssI88
(dp49
I0
I4
sI1
I4
sI2
I4
sI3
I4
sI4
I4
sI5
I4
sI6
I4
sI7
I4
sI8
I4
sI9
I4
sI10
I4
sI11
I4
ssI89
(dp50
I0
I4
sI1
I4
sI2
I6
sI3
I6
sI4
I6
sI5
I4
sI6
I4
sI7
I4
sI8
I4
sI9
I4
sI10
I4
sI11
I4
sI12
I4
sI13
I4
sI14
I4
sI15
I4
sI16
I4
sI17
I4
sI18
I4
sI19
I4
ssI90
(dp51
I0
I2
sI1
I3
sI2
I3
sI3
I3
sI4
I3
sI5
I3
sI6
I3
sI7
I3
sI8
I3
ssI91
(dp52
I0
I2
sI1
I3
sI2
I3
sI3
I3
sI4
I4
sI5
I3
sI6
I4
sI7
I3
sI8
I4
sI9
I4
sI10
I4
sI11
I4
ssI92
(dp53
sI93
(dp54
I0
I4
sI1
I4
ssI94
(dp55
I0
I4
sI1
I4
sI2
I6
sI3
I6
sI4
I4
sI5
I6
sI6
I6
sI7
I6
sI8
I3
ssI95
(dp56
I0
I4
sI1
I4
sI2
I4
sI3
I4
ssI96
(dp57
I0
I4
sI1
I4
sI2
I4
sI3
I4
sI4
I4
sI5
I4
ssI97
(dp58
I0
I4
sI1
I4
ssI98
(dp59
I0
I4
sI1
I4
ssI99
(dp60
I0
I4
sI1
I4
sI2
I4
sI3
I4
sI4
I4
sI5
I4
sI6
I4
sI7
I4
sI8
I4
sI9
I4
sI10
I4
sI11
I4
sI12
I4
sI13
I4
sI14
I4
sI15
I4
sI16
I4
sI17
I4
sI18
I4
sI19
I4
ssI100
(dp61
I0
I6
sI1
I6
sI2
I6
ssI101
(dp62
I0
I6
ssI102
(dp63
I0
I6
ssI103
(dp64
I0
I6
sI1
I6
ssI107
(dp65
I0
I4
sI1
I4
sI2
I4
sI3
I4
sI4
I6
sI5
I4
ssI108
(dp66
I0
I6
sI1
I4
sI2
I6
sI3
I4
ssI109
(dp67
I0
I4
sI1
I4
ssI110
(dp68
I0
I4
sI1
I4
sI2
I4
sI3
I4
sI4
I4
sI5
I4
ssI112
(dp69
I0
I4
sI1
I2
sI2
I4
sI3
I3
sI4
I4
sI5
I4
ssI113
(dp70
I0
I4
sI1
I4
ssI114
(dp71
I0
I4
sI1
I4
sI2
I4
sI3
I4
sI4
I4
sI5
I4
sI6
I4
sI7
I4
sI8
I4
ssI115
(dp72
I0
I4
sI1
I4
ssI116
(dp73
I0
I6
sI1
I6
sI2
I6
sI3
I6
sI4
I6
ssI118
(dp74
I0
I4
sI1
I4
sI2
I4
sI3
I4
sI4
I4
sI5
I4
ssI123
(dp75
I0
I4
sI1
I4
sI2
I4
sI3
I4
sI4
I4
sI5
I4
sI6
I4
sI7
I4
sI8
I4
sI9
I4
sI10
I4
sI11
I4
ssI124
(dp76
I0
I6
sI1
I1
sI2
I1
sI3
I5
ssI125
(dp77
I0
I4
sI1
I6
sI2
I6
sI3
I6
sI4
I6
sI5
I3
sI6
I6
sI7
I6
sI8
I4
sI9
I6
sI10
I6
sI11
I6
sI12
I6
sI13
I6
sI14
I4
sI15
I6
sI16
I4
sI17
I6
sI18
I6
sI19
I6
sI20
I6
sI21
I6
sI22
I6
sI23
I6
sI24
I4
ssI127
(dp78
I0
I4
sI1
I4
sI2
I4
sI3
I4
sI4
I4
sI5
I4
sI6
I4
sI7
I4
sI8
I4
sI9
I4
sI10
I4
sI11
I4
sI12
I4
sI13
I4
sI14
I4
sI15
I4
sI16
I4
sI17
I4
sI18
I4
sI19
I4
sI20
I4
sI21
I4
sI22
I4
sI23
I4
sI24
I4
sI25
I4
sI26
I4
sI27
I4
sI28
I4
sI29
I4
ssI128
(dp79
I0
I2
sI1
I4
sI2
I2
sI3
I6
sI4
I4
sI5
I2
sI6
I6
sI7
I6
sI8
I4
sI9
I2
sI10
I2
sI11
I6
sI12
I2
sI13
I2
sI14
I2
sI15
I4
ssI129
(dp80
I0
I2
sI1
I4
sI2
I2
sI3
I2
sI4
I4
sI5
I2
ssI130
(dp81
I0
I6
sI1
I6
sI2
I6
sI3
I4
sI4
I6
sI5
I6
sI6
I6
sI7
I4
sI8
I4
sI9
I6
sI10
I4
sI11
I6
ssI131
(dp82
I0
I6
sI1
I3
sI2
I3
sI3
I6
ssI132
(dp83
I0
I6
sI1
I6
sI2
I4
sI3
I6
sI4
I6
sI5
I6
sI6
I4
sI7
I6
sI8
I6
ssI133
(dp84
I0
I4
sI1
I6
sI2
I4
sI3
I4
sI4
I6
sI5
I4
ssI134
(dp85
I0
I3
ssI135
(dp86
I0
I4
sI1
I4
ssI136
(dp87
sI137
(dp88
I0
I4
sI1
I4
ssI138
(dp89
I0
I4
sI1
I4
ssI139
(dp90
sI141
(dp91
I0
I4
sI1
I4
ssI142
(dp92
sI143
(dp93
I0
I6
sI1
I4
sI2
I6
sI3
I4
sI4
I6
sI5
I6
ssI144
(dp94
I0
I4
sI1
I4
ssI145
(dp95
I0
I6
sI1
I4
sI2
I6
sI3
I6
sI4
I4
sI5
I6
sI6
I4
sI7
I6
sI8
I6
ssI146
(dp96
I0
I6
sI1
I6
sI2
I6
sI3
I6
sI4
I6
sI5
I6
sI6
I6
sI7
I6
sI8
I6
sI9
I6
sI10
I4
sI11
I6
sI12
I6
sI13
I4
sI14
I6
sI15
I6
sI16
I6
sI17
I4
sI18
I6
sI19
I6
sI20
I6
sI21
I6
sI22
I4
sI23
I6
ssI147
(dp97
I0
I4
sI1
I4
sI2
I4
sI3
I6
sI4
I6
sI5
I4
sI6
I4
sI7
I4
sI8
I4
sI9
I4
sI10
I4
sI11
I4
sI12
I4
sI13
I4
sI14
I4
sI15
I4
sI16
I4
sI17
I4
sI18
I4
sI19
I4
ssI148
(dp98
I0
I4
sI1
I3
ssI149
(dp99
I0
I4
sI1
I4
sI2
I4
sI3
I4
ssI150
(dp100
I0
I6
sI1
I6
sI2
I4
sI3
I4
ssI151
(dp101
I0
I4
sI1
I4
ssI152
(dp102
I0
I4
sI1
I4
ssI153
(dp103
I0
I6
ssI154
(dp104
I0
I4
sI1
I4
ssI156
(dp105
I0
I4
sI1
I4
ssI157
(dp106
I0
I6
sI1
I6
ssI158
(dp107
I0
I4
ssI160
(dp108
I0
I4
ssI161
(dp109
I0
I4
sI1
I4
ssI163
(dp110
I0
I4
ssI165
(dp111
I0
I4
sI1
I4
ssI167
(dp112
I0
I4
sI1
I4
ssI170
(dp113
sI171
(dp114
I0
I4
sI1
I4
ssI172
(dp115
I0
I4
sI1
I4
ssI173
(dp116
I0
I4
sI1
I4
sI2
I4
sI3
I4
sI4
I4
sI5
I4
ssI174
(dp117
I0
I4
sI1
I4
ssI175
(dp118
I0
I6
sI1
I4
sI2
I6
sI3
I6
sI4
I6
sI5
I4
sI6
I6
sI7
I4
sI8
I6
sI9
I6
sI10
I6
sI11
I6
sI12
I6
sI13
I6
sI14
I6
sI15
I4
sI16
I6
sI17
I6
sI18
I6
sI19
I4
sI20
I6
sI21
I6
sI22
I4
sI23
I6
sI24
I6
sI25
I4
sI26
I4
sI27
I6
sI28
I4
sI29
I4
sI30
I6
sI31
I6
sI32
I4
sI33
I4
sI34
I6
ssI176
(dp119
I0
I6
sI1
I6
sI2
I4
sI3
I6
sI4
I6
sI5
I6
sI6
I4
sI7
I6
sI8
I6
sI9
I6
sI10
I4
sI11
I6
sI12
I6
sI13
I6
sI14
I4
sI15
I4
sI16
I6
sI17
I6
sI18
I6
sI19
I4
ssI185
(dp120
sI186
(dp121
sI190
(dp122
I0
I6
sI1
I6
ssI191
(dp123
sI192
(dp124
I0
I6
ssI193
(dp125
sI194
(dp126
I0
I4
sI1
I4
ssI195
(dp127
I0
I6
ssI196
(dp128
I0
I4
sI1
I4
ssI198
(dp129
I0
I5
sI1
I5
ssI199
(dp130
sI201
(dp131
sI206
(dp132
I0
I6
ssI209
(dp133
I0
I6
sI1
I4
sI2
I4
sI3
I4
sI4
I4
sI5
I4
ssI210
(dp134
I0
I4
sI1
I4
ssI211
(dp135
sI214
(dp136
sI217
(dp137
I0
I4
sI1
I4
sI2
I4
sI3
I4
sI4
I4
sI5
I4
ssI218
(dp138
sI219
(dp139
I0
I4
sI1
I4
ssI222
(dp140
I0
I6
ssI223
(dp141
sI226
(dp142
I0
I4
sI1
I4
ssI228
(dp143
I0
I4
sI1
I4
sI2
I4
sI3
I4
ssI229
(dp144
I0
I6
sI1
I6
sI2
I4
sI3
I6
sI4
I4
sI5
I4
ssI230
(dp145
I0
I4
sI1
I4
ssI236
(dp146
I0
I6
sI1
I4
sI2
I4
sI3
I4
sI4
I4
sI5
I4
sI6
I4
sI7
I4
sI8
I4
sI9
I4
sI10
I4
sI11
I4
ssI237
(dp147
I0
I4
sI1
I4
ssI238
(dp148
I0
I6
ssI239
(dp149
I0
I6
sI1
I6
ssI240
(dp150
I0
I6
ssI241
(dp151
I0
I4
sI1
I4
ssI242
(dp152
sI243
(dp153
I0
I4
sI1
I4
ssI244
(dp154
I0
I4
sI1
I4
ssI246
(dp155
I0
I4
sI1
I4
sI2
I4
sI3
I4
sI4
I4
sI5
I4
ssI250
(dp156
I0
I5
sI1
I5
sI2
I5
sI3
I4
sI4
I6
sI5
I4
ssI255
(dp157
I0
I4
sI1
I6
sI2
I4
sI3
I4
sI4
I4
sI5
I4
ssI258
(dp158
I0
I4
sI1
I4
sI2
I6
sI3
I4
sI4
I4
sI5
I4
sI6
I4
sI7
I6
sI8
I6
ssI259
(dp159
I0
I6
ssI261
(dp160
I0
I6
ssI264
(dp161
I0
I1
sI1
I1
ssI267
(dp162
sI270
(dp163
I0
I6
sI1
I4
sI2
I6
sI3
I4
ssI272
(dp164
I0
I5
sI1
I5
ssI278
(dp165
I0
I4
sI1
I4
sI2
I4
sI3
I6
ssI279
(dp166
I0
I4
sI1
I4
ssI281
(dp167
I0
I4
sI1
I4
ssI282
(dp168
I0
I4
sI1
I4
ss.